target datalayout = "e-m:e-p270:32:32-p271:32:32-p272:64:64-i64:64-i128:128-f80:128-n8:16:32:64-S128"
target triple = "x86_64-pc-linux-gnu"

%class.goal2sat = type <{ ptr, i32, [4 x i8] }>

; Function Attrs: mustprogress uwtable
define linkonce_odr hidden void @_ZN8goal2sat3imp8user_popEj(ptr noundef nonnull align 8 dereferenceable(300) %0, i32 noundef %1) #5 comdat align 2 {
  %3 = alloca ptr, align 8
  %4 = alloca i32, align 4
  store ptr %0, ptr %3, align 8, !tbaa !15
  store i32 %1, ptr %4, align 4, !tbaa !94
  %5 = load ptr, ptr %3, align 8
  %6 = load i32, ptr %4, align 4, !tbaa !94
  %7 = load ptr, ptr %5, align 8, !tbaa !16
  %8 = getelementptr inbounds ptr, ptr %7, i64 11
  %9 = load ptr, ptr %8, align 8
  call void %9(ptr noundef nonnull align 8 dereferenceable(300) %5, i32 noundef %6)
  ret void
}

; Function Attrs: mustprogress uwtable
define hidden void @_ZN8goal2sat8user_popEj(ptr noundef nonnull align 8 dereferenceable(12) %0, i32 noundef %1) #5 align 2 {
  %3 = alloca ptr, align 8
  %4 = alloca i32, align 4
  store ptr %0, ptr %3, align 8, !tbaa !8
  store i32 %1, ptr %4, align 4, !tbaa !94
  %5 = load ptr, ptr %3, align 8
  %6 = getelementptr inbounds nuw %class.goal2sat, ptr %5, i32 0, i32 0
  %7 = load ptr, ptr %6, align 8, !tbaa !10
  %8 = icmp ne ptr %7, null
  br i1 %8, label %9, label %13

9:                                                ; preds = %2
  %10 = getelementptr inbounds nuw %class.goal2sat, ptr %5, i32 0, i32 0
  %11 = load ptr, ptr %10, align 8, !tbaa !10
  %12 = load i32, ptr %4, align 4, !tbaa !94
  call void @_ZN8goal2sat3imp8user_popEj(ptr noundef nonnull align 8 dereferenceable(300) %11, i32 noundef %12)
  br label %18

13:                                               ; preds = %2
  %14 = load i32, ptr %4, align 4, !tbaa !94
  %15 = getelementptr inbounds nuw %class.goal2sat, ptr %5, i32 0, i32 1
  %16 = load i32, ptr %15, align 8, !tbaa !14
  %17 = sub i32 %16, %14
  store i32 %17, ptr %15, align 8, !tbaa !14
  br label %18

18:                                               ; preds = %13, %9
  ret void
}