; Function Attrs: mustprogress uwtable
define hidden void @_ZN8goal2sat8user_popEj(ptr noundef nonnull align 8 captures(none) dereferenceable(12) %0, i32 noundef %1) local_unnamed_addr #8 align 2 {
  %3 = load ptr, ptr %0, align 8, !tbaa !3
  %.not = icmp eq ptr %3, null
  br i1 %.not, label %8, label %4

4:                                                ; preds = %2
  %5 = load ptr, ptr %3, align 8, !tbaa !11
  %6 = getelementptr inbounds nuw i8, ptr %5, i64 88
  %7 = load ptr, ptr %6, align 8
  tail call void %7(ptr noundef nonnull align 8 dereferenceable(300) %3, i32 noundef %1)
  br label %12

8:                                                ; preds = %2
  %9 = getelementptr inbounds nuw i8, ptr %0, i64 8
  %10 = load i32, ptr %9, align 8, !tbaa !10
  %11 = sub i32 %10, %1
  store i32 %11, ptr %9, align 8, !tbaa !10
  br label %12

12:                                               ; preds = %8, %4
  ret void
}